target datalayout = "e-m:e-p270:32:32-p271:32:32-p272:64:64-i64:64-i128:128-f80:128-n8:16:32:64-S128"
target triple = "x86_64-pc-linux-gnu"

%struct.MinRegMan_t_ = type { i32, i32, i32, i32, i32, i32, i32, i32, i32, i32, i32, ptr, i32, i32, i32, i32, i32, i32, i32, i32, i32, ptr, ptr, ptr, ptr, ptr, ptr, ptr, ptr, ptr, i32 }
%struct.Abc_Ntk_t_ = type { i32, i32, ptr, ptr, ptr, ptr, ptr, ptr, ptr, ptr, ptr, ptr, ptr, [11 x i32], i32, i32, i32, i32, ptr, i32, ptr, ptr, i32, i32, i32, double, i32, %struct.Vec_Int_t_, ptr, ptr, ptr, ptr, ptr, float, i32, ptr, ptr, ptr, ptr, ptr, ptr, ptr, ptr, ptr, ptr, ptr, ptr, ptr, ptr, ptr, ptr, ptr, ptr, ptr, ptr, ptr, ptr }
%struct.Vec_Int_t_ = type { i32, i32, ptr }
%struct.Flow_Data_t_ = type { i16, %union.anon, i32 }
%union.anon = type { ptr }
%struct.Abc_Obj_t_ = type { ptr, ptr, i32, i32, %struct.Vec_Int_t_, %struct.Vec_Int_t_, %union.anon.0, %union.anon.1 }
%union.anon.0 = type { ptr }
%union.anon.1 = type { ptr }
%struct.Vec_Ptr_t_ = type { i32, i32, ptr }

@pManMR = external global ptr, align 8
@.str.3 = private unnamed_addr constant [23 x i8] c"\09\09updating init state\0A\00", align 1

; Function Attrs: inlinehint nounwind uwtable
define internal void @Vec_IntGrow(ptr noundef %0, i32 noundef %1) #2 {
  %3 = alloca ptr, align 8
  %4 = alloca i32, align 4
  store ptr %0, ptr %3, align 8, !tbaa !101
  store i32 %1, ptr %4, align 4, !tbaa !19
  %5 = load ptr, ptr %3, align 8, !tbaa !101
  %6 = getelementptr inbounds nuw %struct.Vec_Int_t_, ptr %5, i32 0, i32 0
  %7 = load i32, ptr %6, align 8, !tbaa !103
  %8 = load i32, ptr %4, align 4, !tbaa !19
  %9 = icmp sge i32 %7, %8
  br i1 %9, label %10, label %11

10:                                               ; preds = %2
  br label %36

11:                                               ; preds = %2
  %12 = load ptr, ptr %3, align 8, !tbaa !101
  %13 = getelementptr inbounds nuw %struct.Vec_Int_t_, ptr %12, i32 0, i32 2
  %14 = load ptr, ptr %13, align 8, !tbaa !104
  %15 = icmp ne ptr %14, null
  br i1 %15, label %16, label %24

16:                                               ; preds = %11
  %17 = load ptr, ptr %3, align 8, !tbaa !101
  %18 = getelementptr inbounds nuw %struct.Vec_Int_t_, ptr %17, i32 0, i32 2
  %19 = load ptr, ptr %18, align 8, !tbaa !104
  %20 = load i32, ptr %4, align 4, !tbaa !19
  %21 = sext i32 %20 to i64
  %22 = mul i64 4, %21
  %23 = call ptr @realloc(ptr noundef %19, i64 noundef %22) #12
  br label %29

24:                                               ; preds = %11
  %25 = load i32, ptr %4, align 4, !tbaa !19
  %26 = sext i32 %25 to i64
  %27 = mul i64 4, %26
  %28 = call noalias ptr @malloc(i64 noundef %27) #11
  br label %29

29:                                               ; preds = %24, %16
  %30 = phi ptr [ %23, %16 ], [ %28, %24 ]
  %31 = load ptr, ptr %3, align 8, !tbaa !101
  %32 = getelementptr inbounds nuw %struct.Vec_Int_t_, ptr %31, i32 0, i32 2
  store ptr %30, ptr %32, align 8, !tbaa !104
  %33 = load i32, ptr %4, align 4, !tbaa !19
  %34 = load ptr, ptr %3, align 8, !tbaa !101
  %35 = getelementptr inbounds nuw %struct.Vec_Int_t_, ptr %34, i32 0, i32 0
  store i32 %33, ptr %35, align 8, !tbaa !103
  br label %36

36:                                               ; preds = %29, %10
  ret void
}

; Function Attrs: inlinehint nounwind uwtable
define internal ptr @Vec_PtrEntry(ptr noundef %0, i32 noundef %1) #2 {
  %3 = alloca ptr, align 8
  %4 = alloca i32, align 4
  store ptr %0, ptr %3, align 8, !tbaa !39
  store i32 %1, ptr %4, align 4, !tbaa !19
  %5 = load ptr, ptr %3, align 8, !tbaa !39
  %6 = getelementptr inbounds nuw %struct.Vec_Ptr_t_, ptr %5, i32 0, i32 2
  %7 = load ptr, ptr %6, align 8, !tbaa !55
  %8 = load i32, ptr %4, align 4, !tbaa !19
  %9 = sext i32 %8 to i64
  %10 = getelementptr inbounds ptr, ptr %7, i64 %9
  %11 = load ptr, ptr %10, align 8, !tbaa !57
  ret ptr %11
}

; Function Attrs: inlinehint nounwind uwtable
define internal void @Vec_IntFill(ptr noundef %0, i32 noundef %1, i32 noundef %2) #2 {
  %4 = alloca ptr, align 8
  %5 = alloca i32, align 4
  %6 = alloca i32, align 4
  %7 = alloca i32, align 4
  store ptr %0, ptr %4, align 8, !tbaa !101
  store i32 %1, ptr %5, align 4, !tbaa !19
  store i32 %2, ptr %6, align 4, !tbaa !19
  call void @llvm.lifetime.start.p0(i64 4, ptr %7) #10
  %8 = load ptr, ptr %4, align 8, !tbaa !101
  %9 = load i32, ptr %5, align 4, !tbaa !19
  call void @Vec_IntGrow(ptr noundef %8, i32 noundef %9)
  store i32 0, ptr %7, align 4, !tbaa !19
  br label %10

10:                                               ; preds = %22, %3
  %11 = load i32, ptr %7, align 4, !tbaa !19
  %12 = load i32, ptr %5, align 4, !tbaa !19
  %13 = icmp slt i32 %11, %12
  br i1 %13, label %14, label %25

14:                                               ; preds = %10
  %15 = load i32, ptr %6, align 4, !tbaa !19
  %16 = load ptr, ptr %4, align 8, !tbaa !101
  %17 = getelementptr inbounds nuw %struct.Vec_Int_t_, ptr %16, i32 0, i32 2
  %18 = load ptr, ptr %17, align 8, !tbaa !104
  %19 = load i32, ptr %7, align 4, !tbaa !19
  %20 = sext i32 %19 to i64
  %21 = getelementptr inbounds i32, ptr %18, i64 %20
  store i32 %15, ptr %21, align 4, !tbaa !19
  br label %22

22:                                               ; preds = %14
  %23 = load i32, ptr %7, align 4, !tbaa !19
  %24 = add nsw i32 %23, 1
  store i32 %24, ptr %7, align 4, !tbaa !19
  br label %10, !llvm.loop !112

25:                                               ; preds = %10
  %26 = load i32, ptr %5, align 4, !tbaa !19
  %27 = load ptr, ptr %4, align 8, !tbaa !101
  %28 = getelementptr inbounds nuw %struct.Vec_Int_t_, ptr %27, i32 0, i32 1
  store i32 %26, ptr %28, align 4, !tbaa !102
  call void @llvm.lifetime.end.p0(i64 4, ptr %7) #10
  ret void
}

; Function Attrs: inlinehint nounwind uwtable
define internal i32 @Abc_NtkObjNumMax(ptr noundef %0) #2 {
  %2 = alloca ptr, align 8
  store ptr %0, ptr %2, align 8, !tbaa !3
  %3 = load ptr, ptr %2, align 8, !tbaa !3
  %4 = getelementptr inbounds nuw %struct.Abc_Ntk_t_, ptr %3, i32 0, i32 5
  %5 = load ptr, ptr %4, align 8, !tbaa !41
  %6 = call i32 @Vec_PtrSize(ptr noundef %5)
  ret i32 %6
}

; Function Attrs: inlinehint nounwind uwtable
define internal void @Abc_LatchSetInitDc(ptr noundef %0) #2 {
  %2 = alloca ptr, align 8
  store ptr %0, ptr %2, align 8, !tbaa !34
  %3 = load ptr, ptr %2, align 8, !tbaa !34
  %4 = getelementptr inbounds nuw %struct.Abc_Obj_t_, ptr %3, i32 0, i32 6
  store ptr inttoptr (i64 3 to ptr), ptr %4, align 8, !tbaa !42
  ret void
}

; Function Attrs: inlinehint nounwind uwtable
define internal void @Abc_LatchSetInit1(ptr noundef %0) #2 {
  %2 = alloca ptr, align 8
  store ptr %0, ptr %2, align 8, !tbaa !34
  %3 = load ptr, ptr %2, align 8, !tbaa !34
  %4 = getelementptr inbounds nuw %struct.Abc_Obj_t_, ptr %3, i32 0, i32 6
  store ptr inttoptr (i64 2 to ptr), ptr %4, align 8, !tbaa !42
  ret void
}

; Function Attrs: inlinehint nounwind uwtable
define internal void @Abc_LatchSetInit0(ptr noundef %0) #2 {
  %2 = alloca ptr, align 8
  store ptr %0, ptr %2, align 8, !tbaa !34
  %3 = load ptr, ptr %2, align 8, !tbaa !34
  %4 = getelementptr inbounds nuw %struct.Abc_Obj_t_, ptr %3, i32 0, i32 6
  store ptr inttoptr (i64 1 to ptr), ptr %4, align 8, !tbaa !42
  ret void
}

; Function Attrs: inlinehint nounwind uwtable
define internal i32 @Abc_ObjId(ptr noundef %0) #2 {
  %2 = alloca ptr, align 8
  store ptr %0, ptr %2, align 8, !tbaa !34
  %3 = load ptr, ptr %2, align 8, !tbaa !34
  %4 = getelementptr inbounds nuw %struct.Abc_Obj_t_, ptr %3, i32 0, i32 2
  %5 = load i32, ptr %4, align 8, !tbaa !59
  ret i32 %5
}

; Function Attrs: inlinehint nounwind uwtable
define internal ptr @Abc_ObjFanin0(ptr noundef %0) #2 {
  %2 = alloca ptr, align 8
  store ptr %0, ptr %2, align 8, !tbaa !34
  %3 = load ptr, ptr %2, align 8, !tbaa !34
  %4 = getelementptr inbounds nuw %struct.Abc_Obj_t_, ptr %3, i32 0, i32 0
  %5 = load ptr, ptr %4, align 8, !tbaa !53
  %6 = getelementptr inbounds nuw %struct.Abc_Ntk_t_, ptr %5, i32 0, i32 5
  %7 = load ptr, ptr %6, align 8, !tbaa !41
  %8 = getelementptr inbounds nuw %struct.Vec_Ptr_t_, ptr %7, i32 0, i32 2
  %9 = load ptr, ptr %8, align 8, !tbaa !55
  %10 = load ptr, ptr %2, align 8, !tbaa !34
  %11 = getelementptr inbounds nuw %struct.Abc_Obj_t_, ptr %10, i32 0, i32 4
  %12 = getelementptr inbounds nuw %struct.Vec_Int_t_, ptr %11, i32 0, i32 2
  %13 = load ptr, ptr %12, align 8, !tbaa !56
  %14 = getelementptr inbounds i32, ptr %13, i64 0
  %15 = load i32, ptr %14, align 4, !tbaa !19
  %16 = sext i32 %15 to i64
  %17 = getelementptr inbounds ptr, ptr %9, i64 %16
  %18 = load ptr, ptr %17, align 8, !tbaa !57
  ret ptr %18
}

; Function Attrs: inlinehint nounwind uwtable
define internal i32 @Abc_ObjIsLatch(ptr noundef %0) #2 {
  %2 = alloca ptr, align 8
  store ptr %0, ptr %2, align 8, !tbaa !34
  %3 = load ptr, ptr %2, align 8, !tbaa !34
  %4 = getelementptr inbounds nuw %struct.Abc_Obj_t_, ptr %3, i32 0, i32 3
  %5 = load i32, ptr %4, align 4
  %6 = and i32 %5, 15
  %7 = icmp eq i32 %6, 8
  %8 = zext i1 %7 to i32
  ret i32 %8
}

; Function Attrs: inlinehint nounwind uwtable
define internal ptr @Abc_NtkBox(ptr noundef %0, i32 noundef %1) #2 {
  %3 = alloca ptr, align 8
  %4 = alloca i32, align 4
  store ptr %0, ptr %3, align 8, !tbaa !3
  store i32 %1, ptr %4, align 4, !tbaa !19
  %5 = load ptr, ptr %3, align 8, !tbaa !3
  %6 = getelementptr inbounds nuw %struct.Abc_Ntk_t_, ptr %5, i32 0, i32 11
  %7 = load ptr, ptr %6, align 8, !tbaa !20
  %8 = load i32, ptr %4, align 4, !tbaa !19
  %9 = call ptr @Vec_PtrEntry(ptr noundef %7, i32 noundef %8)
  ret ptr %9
}

; Function Attrs: inlinehint nounwind uwtable
define internal i32 @Vec_PtrSize(ptr noundef %0) #2 {
  %2 = alloca ptr, align 8
  store ptr %0, ptr %2, align 8, !tbaa !39
  %3 = load ptr, ptr %2, align 8, !tbaa !39
  %4 = getelementptr inbounds nuw %struct.Vec_Ptr_t_, ptr %3, i32 0, i32 1
  %5 = load i32, ptr %4, align 4, !tbaa !49
  ret i32 %5
}

; Function Attrs: inlinehint nounwind uwtable
define internal void @Abc_NtkIncrementTravId(ptr noundef %0) #2 {
  %2 = alloca ptr, align 8
  store ptr %0, ptr %2, align 8, !tbaa !3
  %3 = load ptr, ptr %2, align 8, !tbaa !3
  %4 = getelementptr inbounds nuw %struct.Abc_Ntk_t_, ptr %3, i32 0, i32 27
  %5 = getelementptr inbounds nuw %struct.Vec_Int_t_, ptr %4, i32 0, i32 2
  %6 = load ptr, ptr %5, align 8, !tbaa !51
  %7 = icmp ne ptr %6, null
  br i1 %7, label %14, label %8

8:                                                ; preds = %1
  %9 = load ptr, ptr %2, align 8, !tbaa !3
  %10 = getelementptr inbounds nuw %struct.Abc_Ntk_t_, ptr %9, i32 0, i32 27
  %11 = load ptr, ptr %2, align 8, !tbaa !3
  %12 = call i32 @Abc_NtkObjNumMax(ptr noundef %11)
  %13 = add nsw i32 %12, 500
  call void @Vec_IntFill(ptr noundef %10, i32 noundef %13, i32 noundef 0)
  br label %14

14:                                               ; preds = %8, %1
  %15 = load ptr, ptr %2, align 8, !tbaa !3
  %16 = getelementptr inbounds nuw %struct.Abc_Ntk_t_, ptr %15, i32 0, i32 26
  %17 = load i32, ptr %16, align 8, !tbaa !52
  %18 = add nsw i32 %17, 1
  store i32 %18, ptr %16, align 8, !tbaa !52
  ret void
}

; Function Attrs: nounwind uwtable
define void @Abc_FlowRetime_UpdateForwardInit(ptr noundef %0) #0 {
  %2 = alloca ptr, align 8
  %3 = alloca ptr, align 8
  %4 = alloca ptr, align 8
  %5 = alloca i32, align 4
  store ptr %0, ptr %2, align 8, !tbaa !3
  call void @llvm.lifetime.start.p0(i64 8, ptr %3) #10
  call void @llvm.lifetime.start.p0(i64 8, ptr %4) #10
  call void @llvm.lifetime.start.p0(i64 4, ptr %5) #10
  %6 = load ptr, ptr @pManMR, align 8, !tbaa !8
  %7 = getelementptr inbounds nuw %struct.MinRegMan_t_, ptr %6, i32 0, i32 10
  %8 = load i32, ptr %7, align 8, !tbaa !18
  %9 = icmp ne i32 %8, 0
  br i1 %9, label %10, label %12

10:                                               ; preds = %1
  %11 = call i32 (ptr, ...) @printf(ptr noundef @.str.3)
  br label %12

12:                                               ; preds = %10, %1
  %13 = load ptr, ptr %2, align 8, !tbaa !3
  call void @Abc_NtkIncrementTravId(ptr noundef %13)
  store i32 0, ptr %5, align 4, !tbaa !19
  br label %14

14:                                               ; preds = %68, %12
  %15 = load i32, ptr %5, align 4, !tbaa !19
  %16 = load ptr, ptr %2, align 8, !tbaa !3
  %17 = getelementptr inbounds nuw %struct.Abc_Ntk_t_, ptr %16, i32 0, i32 11
  %18 = load ptr, ptr %17, align 8, !tbaa !20
  %19 = call i32 @Vec_PtrSize(ptr noundef %18)
  %20 = icmp slt i32 %15, %19
  br i1 %20, label %21, label %25

21:                                               ; preds = %14
  %22 = load ptr, ptr %2, align 8, !tbaa !3
  %23 = load i32, ptr %5, align 4, !tbaa !19
  %24 = call ptr @Abc_NtkBox(ptr noundef %22, i32 noundef %23)
  store ptr %24, ptr %3, align 8, !tbaa !34
  br label %25

25:                                               ; preds = %21, %14
  %26 = phi i1 [ false, %14 ], [ true, %21 ]
  br i1 %26, label %27, label %71

27:                                               ; preds = %25
  %28 = load ptr, ptr %3, align 8, !tbaa !34
  %29 = call i32 @Abc_ObjIsLatch(ptr noundef %28)
  %30 = icmp ne i32 %29, 0
  br i1 %30, label %32, label %31

31:                                               ; preds = %27
  br label %67

32:                                               ; preds = %27
  %33 = load ptr, ptr %3, align 8, !tbaa !34
  %34 = call ptr @Abc_ObjFanin0(ptr noundef %33)
  store ptr %34, ptr %4, align 8, !tbaa !34
  %35 = load ptr, ptr %4, align 8, !tbaa !34
  call void @Abc_FlowRetime_UpdateForwardInit_rec(ptr noundef %35)
  %36 = load ptr, ptr @pManMR, align 8, !tbaa !8
  %37 = getelementptr inbounds nuw %struct.MinRegMan_t_, ptr %36, i32 0, i32 23
  %38 = load ptr, ptr %37, align 8, !tbaa !36
  %39 = load ptr, ptr %4, align 8, !tbaa !34
  %40 = call i32 @Abc_ObjId(ptr noundef %39)
  %41 = zext i32 %40 to i64
  %42 = getelementptr inbounds nuw %struct.Flow_Data_t_, ptr %38, i64 %41
  %43 = load i16, ptr %42, align 8
  %44 = zext i16 %43 to i32
  %45 = and i32 %44, 32
  %46 = icmp ne i32 %45, 0
  br i1 %46, label %47, label %49

47:                                               ; preds = %32
  %48 = load ptr, ptr %3, align 8, !tbaa !34
  call void @Abc_LatchSetInit0(ptr noundef %48)
  br label %66

49:                                               ; preds = %32
  %50 = load ptr, ptr @pManMR, align 8, !tbaa !8
  %51 = getelementptr inbounds nuw %struct.MinRegMan_t_, ptr %50, i32 0, i32 23
  %52 = load ptr, ptr %51, align 8, !tbaa !36
  %53 = load ptr, ptr %4, align 8, !tbaa !34
  %54 = call i32 @Abc_ObjId(ptr noundef %53)
  %55 = zext i32 %54 to i64
  %56 = getelementptr inbounds nuw %struct.Flow_Data_t_, ptr %52, i64 %55
  %57 = load i16, ptr %56, align 8
  %58 = zext i16 %57 to i32
  %59 = and i32 %58, 64
  %60 = icmp ne i32 %59, 0
  br i1 %60, label %61, label %63

61:                                               ; preds = %49
  %62 = load ptr, ptr %3, align 8, !tbaa !34
  call void @Abc_LatchSetInit1(ptr noundef %62)
  br label %65

63:                                               ; preds = %49
  %64 = load ptr, ptr %3, align 8, !tbaa !34
  call void @Abc_LatchSetInitDc(ptr noundef %64)
  br label %65

65:                                               ; preds = %63, %61
  br label %66

66:                                               ; preds = %65, %47
  br label %67

67:                                               ; preds = %66, %31
  br label %68

68:                                               ; preds = %67
  %69 = load i32, ptr %5, align 4, !tbaa !19
  %70 = add nsw i32 %69, 1
  store i32 %70, ptr %5, align 4, !tbaa !19
  br label %14, !llvm.loop !37

71:                                               ; preds = %25
  call void @llvm.lifetime.end.p0(i64 4, ptr %5) #10
  call void @llvm.lifetime.end.p0(i64 8, ptr %4) #10
  call void @llvm.lifetime.end.p0(i64 8, ptr %3) #10
  ret void
}