; Function Attrs: nounwind uwtable
define void @Abc_FlowRetime_UpdateForwardInit(ptr noundef captures(none) %0) local_unnamed_addr #0 {
  %2 = load ptr, ptr @pManMR, align 8, !tbaa !3
  %3 = getelementptr inbounds nuw i8, ptr %2, i64 40
  %4 = load i32, ptr %3, align 8, !tbaa !17
  %.not = icmp eq i32 %4, 0
  br i1 %.not, label %6, label %5

5:                                                ; preds = %1
  %puts = tail call i32 @puts(ptr nonnull dereferenceable(1) @str)
  br label %6

6:                                                ; preds = %5, %1
  %7 = getelementptr inbounds nuw i8, ptr %0, i64 232
  %8 = load ptr, ptr %7, align 8, !tbaa !18
  %.not.i = icmp eq ptr %8, null
  br i1 %.not.i, label %9, label %Abc_NtkIncrementTravId.exit

9:                                                ; preds = %6
  %10 = getelementptr inbounds nuw i8, ptr %0, i64 224
  %11 = getelementptr i8, ptr %0, i64 32
  %.val.i = load ptr, ptr %11, align 8, !tbaa !32
  %12 = getelementptr i8, ptr %.val.i, i64 4
  %.val.val.i = load i32, ptr %12, align 4, !tbaa !33
  %13 = add nsw i32 %.val.val.i, 500
  %14 = load i32, ptr %10, align 8, !tbaa !35
  %.not.i.i.i = icmp slt i32 %14, %13
  br i1 %.not.i.i.i, label %15, label %Vec_IntGrow.exit.i.i

15:                                               ; preds = %9
  %16 = sext i32 %13 to i64
  %17 = shl nsw i64 %16, 2
  %18 = tail call noalias ptr @malloc(i64 noundef %17) #17
  store ptr %18, ptr %7, align 8, !tbaa !36
  store i32 %13, ptr %10, align 8, !tbaa !35
  br label %Vec_IntGrow.exit.i.i

Vec_IntGrow.exit.i.i:                             ; preds = %15, %9
  %19 = phi ptr [ %18, %15 ], [ null, %9 ]
  %20 = icmp sgt i32 %.val.val.i, -500
  br i1 %20, label %.lr.ph.i.i, label %Vec_IntFill.exit.i

.lr.ph.i.i:                                       ; preds = %Vec_IntGrow.exit.i.i
  %21 = zext nneg i32 %13 to i64
  %22 = shl nuw nsw i64 %21, 2
  tail call void @llvm.memset.p0.i64(ptr align 4 %19, i8 0, i64 %22, i1 false), !tbaa !37
  br label %Vec_IntFill.exit.i

Vec_IntFill.exit.i:                               ; preds = %.lr.ph.i.i, %Vec_IntGrow.exit.i.i
  %23 = getelementptr inbounds nuw i8, ptr %0, i64 228
  store i32 %13, ptr %23, align 4, !tbaa !38
  br label %Abc_NtkIncrementTravId.exit

Abc_NtkIncrementTravId.exit:                      ; preds = %6, %Vec_IntFill.exit.i
  %24 = getelementptr inbounds nuw i8, ptr %0, i64 216
  %25 = load i32, ptr %24, align 8, !tbaa !39
  %26 = add nsw i32 %25, 1
  store i32 %26, ptr %24, align 8, !tbaa !39
  %27 = getelementptr inbounds nuw i8, ptr %0, i64 80
  %28 = load ptr, ptr %27, align 8, !tbaa !40
  %29 = getelementptr i8, ptr %28, i64 4
  %.val23 = load i32, ptr %29, align 4, !tbaa !33
  %30 = icmp sgt i32 %.val23, 0
  br i1 %30, label %.lr.ph, label %.critedge

.lr.ph:                                           ; preds = %Abc_NtkIncrementTravId.exit, %59
  %indvars.iv = phi i64 [ %indvars.iv.next, %59 ], [ 0, %Abc_NtkIncrementTravId.exit ]
  %31 = phi ptr [ %60, %59 ], [ %28, %Abc_NtkIncrementTravId.exit ]
  %32 = getelementptr i8, ptr %31, i64 8
  %.val16.val = load ptr, ptr %32, align 8, !tbaa !41
  %33 = getelementptr inbounds nuw ptr, ptr %.val16.val, i64 %indvars.iv
  %34 = load ptr, ptr %33, align 8, !tbaa !42
  %35 = getelementptr i8, ptr %34, i64 20
  %.val17 = load i32, ptr %35, align 4
  %36 = and i32 %.val17, 15
  %.not22 = icmp eq i32 %36, 8
  br i1 %.not22, label %37, label %59

37:                                               ; preds = %.lr.ph
  %.val18 = load ptr, ptr %34, align 8, !tbaa !43
  %38 = getelementptr i8, ptr %34, i64 32
  %.val19 = load ptr, ptr %38, align 8, !tbaa !46
  %39 = getelementptr i8, ptr %.val18, i64 32
  %.val18.val = load ptr, ptr %39, align 8, !tbaa !32
  %.val19.val = load i32, ptr %.val19, align 4, !tbaa !37
  %40 = getelementptr i8, ptr %.val18.val, i64 8
  %.val18.val.val = load ptr, ptr %40, align 8, !tbaa !41
  %41 = sext i32 %.val19.val to i64
  %42 = getelementptr inbounds ptr, ptr %.val18.val.val, i64 %41
  %43 = load ptr, ptr %42, align 8, !tbaa !42
  tail call fastcc void @Abc_FlowRetime_UpdateForwardInit_rec(ptr noundef %43)
  %44 = load ptr, ptr @pManMR, align 8, !tbaa !3
  %45 = getelementptr inbounds nuw i8, ptr %44, i64 112
  %46 = load ptr, ptr %45, align 8, !tbaa !47
  %47 = getelementptr i8, ptr %43, i64 16
  %.val20 = load i32, ptr %47, align 8, !tbaa !48
  %48 = zext i32 %.val20 to i64
  %49 = getelementptr inbounds nuw %struct.Flow_Data_t_, ptr %46, i64 %48
  %50 = load i16, ptr %49, align 8
  %51 = and i16 %50, 32
  %.not14 = icmp eq i16 %51, 0
  br i1 %.not14, label %54, label %52

52:                                               ; preds = %37
  %53 = getelementptr inbounds nuw i8, ptr %34, i64 56
  store ptr inttoptr (i64 1 to ptr), ptr %53, align 8, !tbaa !49
  br label %59

54:                                               ; preds = %37
  %55 = and i16 %50, 64
  %.not15 = icmp eq i16 %55, 0
  %56 = getelementptr inbounds nuw i8, ptr %34, i64 56
  br i1 %.not15, label %58, label %57

57:                                               ; preds = %54
  store ptr inttoptr (i64 2 to ptr), ptr %56, align 8, !tbaa !49
  br label %59

58:                                               ; preds = %54
  store ptr inttoptr (i64 3 to ptr), ptr %56, align 8, !tbaa !49
  br label %59

59:                                               ; preds = %.lr.ph, %57, %58, %52
  %indvars.iv.next = add nuw nsw i64 %indvars.iv, 1
  %60 = load ptr, ptr %27, align 8, !tbaa !40
  %61 = getelementptr i8, ptr %60, i64 4
  %.val = load i32, ptr %61, align 4, !tbaa !33
  %62 = sext i32 %.val to i64
  %63 = icmp slt i64 %indvars.iv.next, %62
  br i1 %63, label %.lr.ph, label %.critedge, !llvm.loop !50

.critedge:                                        ; preds = %59, %Abc_NtkIncrementTravId.exit
  ret void
}